; Function Attrs: mustprogress nofree nounwind uwtable
define noundef nonnull align 8 dereferenceable(48) ptr @_ZNK32pxrInternal_v0_24__pxrReserved__34PcpDynamicFileFormatDependencyData25GetRelevantAttributeNamesEv(ptr noundef nonnull readonly align 8 captures(none) dereferenceable(8) %0) local_unnamed_addr #6 align 2 personality ptr @__gxx_personality_v0 {
  %2 = load atomic i8, ptr @_ZGVZNK32pxrInternal_v0_24__pxrReserved__34PcpDynamicFileFormatDependencyData25GetRelevantAttributeNamesEvE5empty acquire, align 8
  %3 = icmp eq i8 %2, 0
  br i1 %3, label %4, label %8, !prof !8

4:                                                ; preds = %1
  %5 = tail call i32 @__cxa_guard_acquire(ptr nonnull @_ZGVZNK32pxrInternal_v0_24__pxrReserved__34PcpDynamicFileFormatDependencyData25GetRelevantAttributeNamesEvE5empty) #18
  %.not = icmp eq i32 %5, 0
  br i1 %.not, label %8, label %6

6:                                                ; preds = %4
  store i32 0, ptr getelementptr inbounds nuw (i8, ptr @_ZZNK32pxrInternal_v0_24__pxrReserved__34PcpDynamicFileFormatDependencyData25GetRelevantAttributeNamesEvE5empty, i64 8), align 8
  store ptr null, ptr getelementptr inbounds nuw (i8, ptr @_ZZNK32pxrInternal_v0_24__pxrReserved__34PcpDynamicFileFormatDependencyData25GetRelevantAttributeNamesEvE5empty, i64 16), align 8
  store ptr getelementptr inbounds nuw (i8, ptr @_ZZNK32pxrInternal_v0_24__pxrReserved__34PcpDynamicFileFormatDependencyData25GetRelevantAttributeNamesEvE5empty, i64 8), ptr getelementptr inbounds nuw (i8, ptr @_ZZNK32pxrInternal_v0_24__pxrReserved__34PcpDynamicFileFormatDependencyData25GetRelevantAttributeNamesEvE5empty, i64 24), align 8
  store ptr getelementptr inbounds nuw (i8, ptr @_ZZNK32pxrInternal_v0_24__pxrReserved__34PcpDynamicFileFormatDependencyData25GetRelevantAttributeNamesEvE5empty, i64 8), ptr getelementptr inbounds nuw (i8, ptr @_ZZNK32pxrInternal_v0_24__pxrReserved__34PcpDynamicFileFormatDependencyData25GetRelevantAttributeNamesEvE5empty, i64 32), align 8
  store i64 0, ptr getelementptr inbounds nuw (i8, ptr @_ZZNK32pxrInternal_v0_24__pxrReserved__34PcpDynamicFileFormatDependencyData25GetRelevantAttributeNamesEvE5empty, i64 40), align 8
  %7 = tail call i32 @__cxa_atexit(ptr nonnull @_ZNSt3setIN32pxrInternal_v0_24__pxrReserved__7TfTokenENS0_28TfTokenFastArbitraryLessThanESaIS1_EED2Ev, ptr nonnull @_ZZNK32pxrInternal_v0_24__pxrReserved__34PcpDynamicFileFormatDependencyData25GetRelevantAttributeNamesEvE5empty, ptr nonnull @__dso_handle) #18
  tail call void @__cxa_guard_release(ptr nonnull @_ZGVZNK32pxrInternal_v0_24__pxrReserved__34PcpDynamicFileFormatDependencyData25GetRelevantAttributeNamesEvE5empty) #18
  br label %8

8:                                                ; preds = %6, %4, %1
  %9 = load ptr, ptr %0, align 8
  %.not1 = icmp eq ptr %9, null
  %10 = getelementptr inbounds nuw i8, ptr %9, i64 72
  %spec.select = select i1 %.not1, ptr @_ZZNK32pxrInternal_v0_24__pxrReserved__34PcpDynamicFileFormatDependencyData25GetRelevantAttributeNamesEvE5empty, ptr %10
  ret ptr %spec.select
}